target datalayout = "e-m:e-p270:32:32-p271:32:32-p272:64:64-i64:64-i128:128-f80:128-n8:16:32:64-S128"
target triple = "x86_64-pc-linux-gnu"

%union.pthread_mutex_t = type { %struct.__pthread_mutex_s }
%struct.__pthread_mutex_s = type { i32, i32, i32, i32, i32, i16, i16, %struct.__pthread_internal_list }
%struct.__pthread_internal_list = type { ptr, ptr }
%struct.thread_status_t = type { ptr, i64, %union.pthread_mutex_t, %union.pthread_cond_t, [24 x i8] }
%union.pthread_cond_t = type { %struct.__pthread_cond_s }
%struct.__pthread_cond_s = type { %union.__atomic_wide_counter, %union.__atomic_wide_counter, [2 x i32], [2 x i32], i32, i32, [2 x i32] }
%union.__atomic_wide_counter = type { i64 }

@blas_server_avail = global i32 0, align 128
@blas_threads = internal global [16 x i64] zeroinitializer, align 16
@server_lock = internal global %union.pthread_mutex_t zeroinitializer, align 8
@blas_num_threads = external global i32, align 4
@thread_status = internal global [16 x %struct.thread_status_t] zeroinitializer, align 128
@increased_threads = internal global i32 0, align 4
@blas_cpu_number = external global i32, align 4

; Function Attrs: nounwind uwtable
define void @goto_set_num_threads(i32 noundef %0) #0 {
  %2 = alloca i32, align 4
  %3 = alloca i64, align 8
  %4 = alloca ptr, align 8
  store i32 %0, ptr %2, align 4, !tbaa !3
  call void @llvm.lifetime.start.p0(i64 8, ptr %3) #8
  %5 = load i32, ptr @blas_server_avail, align 128, !tbaa !3
  %6 = icmp eq i32 %5, 0
  %7 = xor i1 %6, true
  %8 = xor i1 %7, true
  %9 = zext i1 %8 to i32
  %10 = sext i32 %9 to i64
  %11 = call i64 @llvm.expect.i64(i64 %10, i64 0)
  %12 = icmp ne i64 %11, 0
  br i1 %12, label %13, label %15

13:                                               ; preds = %1
  %14 = call i32 @blas_thread_init()
  br label %15

15:                                               ; preds = %13, %1
  %16 = load i32, ptr %2, align 4, !tbaa !3
  %17 = icmp slt i32 %16, 1
  br i1 %17, label %18, label %20

18:                                               ; preds = %15
  %19 = load i32, ptr @blas_num_threads, align 4, !tbaa !3
  store i32 %19, ptr %2, align 4, !tbaa !3
  br label %20

20:                                               ; preds = %18, %15
  %21 = load i32, ptr %2, align 4, !tbaa !3
  %22 = icmp sgt i32 %21, 16
  br i1 %22, label %23, label %24

23:                                               ; preds = %20
  store i32 16, ptr %2, align 4, !tbaa !3
  br label %24

24:                                               ; preds = %23, %20
  %25 = load i32, ptr %2, align 4, !tbaa !3
  %26 = load i32, ptr @blas_num_threads, align 4, !tbaa !3
  %27 = icmp sgt i32 %25, %26
  br i1 %27, label %28, label %72

28:                                               ; preds = %24
  %29 = call i32 @pthread_mutex_lock(ptr noundef @server_lock) #8
  store i32 1, ptr @increased_threads, align 4, !tbaa !3
  %30 = load i32, ptr @blas_num_threads, align 4, !tbaa !3
  %31 = icmp sgt i32 %30, 0
  br i1 %31, label %32, label %35

32:                                               ; preds = %28
  %33 = load i32, ptr @blas_num_threads, align 4, !tbaa !3
  %34 = sub nsw i32 %33, 1
  br label %36

35:                                               ; preds = %28
  br label %36

36:                                               ; preds = %35, %32
  %37 = phi i32 [ %34, %32 ], [ 0, %35 ]
  %38 = sext i32 %37 to i64
  store i64 %38, ptr %3, align 8, !tbaa !7
  br label %39

39:                                               ; preds = %66, %36
  %40 = load i64, ptr %3, align 8, !tbaa !7
  %41 = load i32, ptr %2, align 4, !tbaa !3
  %42 = sub nsw i32 %41, 1
  %43 = sext i32 %42 to i64
  %44 = icmp slt i64 %40, %43
  br i1 %44, label %45, label %69

45:                                               ; preds = %39
  %46 = load i64, ptr %3, align 8, !tbaa !7
  %47 = getelementptr inbounds [16 x %struct.thread_status_t], ptr @thread_status, i64 0, i64 %46
  %48 = getelementptr inbounds nuw %struct.thread_status_t, ptr %47, i32 0, i32 0
  store ptr null, ptr %4, align 8, !tbaa !11
  %49 = load i64, ptr %4, align 8
  store atomic volatile i64 %49, ptr %48 monotonic, align 128
  %50 = load i64, ptr %3, align 8, !tbaa !7
  %51 = getelementptr inbounds [16 x %struct.thread_status_t], ptr @thread_status, i64 0, i64 %50
  %52 = getelementptr inbounds nuw %struct.thread_status_t, ptr %51, i32 0, i32 1
  store volatile i64 4, ptr %52, align 8, !tbaa !13
  %53 = load i64, ptr %3, align 8, !tbaa !7
  %54 = getelementptr inbounds [16 x %struct.thread_status_t], ptr @thread_status, i64 0, i64 %53
  %55 = getelementptr inbounds nuw %struct.thread_status_t, ptr %54, i32 0, i32 2
  %56 = call i32 @pthread_mutex_init(ptr noundef %55, ptr noundef null) #8
  %57 = load i64, ptr %3, align 8, !tbaa !7
  %58 = getelementptr inbounds [16 x %struct.thread_status_t], ptr @thread_status, i64 0, i64 %57
  %59 = getelementptr inbounds nuw %struct.thread_status_t, ptr %58, i32 0, i32 3
  %60 = call i32 @pthread_cond_init(ptr noundef %59, ptr noundef null) #8
  %61 = load i64, ptr %3, align 8, !tbaa !7
  %62 = getelementptr inbounds [16 x i64], ptr @blas_threads, i64 0, i64 %61
  %63 = load i64, ptr %3, align 8, !tbaa !7
  %64 = inttoptr i64 %63 to ptr
  %65 = call i32 @pthread_create(ptr noundef %62, ptr noundef null, ptr noundef @blas_thread_server, ptr noundef %64) #8
  br label %66

66:                                               ; preds = %45
  %67 = load i64, ptr %3, align 8, !tbaa !7
  %68 = add nsw i64 %67, 1
  store i64 %68, ptr %3, align 8, !tbaa !7
  br label %39, !llvm.loop !72

69:                                               ; preds = %39
  %70 = load i32, ptr %2, align 4, !tbaa !3
  store i32 %70, ptr @blas_num_threads, align 4, !tbaa !3
  %71 = call i32 @pthread_mutex_unlock(ptr noundef @server_lock) #8
  br label %72

72:                                               ; preds = %69, %24
  %73 = load i32, ptr %2, align 4, !tbaa !3
  store i32 %73, ptr @blas_cpu_number, align 4, !tbaa !3
  call void @llvm.lifetime.end.p0(i64 8, ptr %3) #8
  ret void
}