; Function Attrs: nounwind uwtable
define void @goto_set_num_threads(i32 noundef %0) local_unnamed_addr #0 {
  %2 = load i32, ptr @blas_server_avail, align 128, !tbaa !3
  %3 = icmp eq i32 %2, 0
  br i1 %3, label %4, label %6, !prof !28

4:                                                ; preds = %1
  %5 = tail call i32 @blas_thread_init()
  br label %6

6:                                                ; preds = %4, %1
  %7 = icmp slt i32 %0, 1
  %8 = load i32, ptr @blas_num_threads, align 4
  %spec.select = select i1 %7, i32 %8, i32 %0
  %spec.store.select = tail call i32 @llvm.smin.i32(i32 %spec.select, i32 16)
  %9 = icmp sgt i32 %spec.store.select, %8
  br i1 %9, label %10, label %31

10:                                               ; preds = %6
  %11 = tail call i32 @pthread_mutex_lock(ptr noundef nonnull @server_lock) #10
  %12 = load i32, ptr @blas_num_threads, align 4, !tbaa !3
  %13 = tail call i32 @llvm.smax.i32(i32 %12, i32 1)
  %14 = add nsw i32 %spec.store.select, -1
  %15 = sext i32 %14 to i64
  %16 = icmp slt i32 %13, %spec.store.select
  br i1 %16, label %.lr.ph.preheader, label %._crit_edge

.lr.ph.preheader:                                 ; preds = %10
  %17 = add nsw i32 %13, -1
  %18 = zext nneg i32 %17 to i64
  br label %.lr.ph

.lr.ph:                                           ; preds = %.lr.ph.preheader, %.lr.ph
  %.01517 = phi i64 [ %28, %.lr.ph ], [ %18, %.lr.ph.preheader ]
  %19 = getelementptr inbounds nuw [16 x %struct.thread_status_t], ptr @thread_status, i64 0, i64 %.01517
  store atomic volatile i64 0, ptr %19 monotonic, align 128
  %20 = getelementptr inbounds nuw i8, ptr %19, i64 8
  store volatile i64 4, ptr %20, align 8, !tbaa !14
  %21 = getelementptr inbounds nuw i8, ptr %19, i64 16
  %22 = tail call i32 @pthread_mutex_init(ptr noundef nonnull %21, ptr noundef null) #10
  %23 = getelementptr inbounds nuw i8, ptr %19, i64 56
  %24 = tail call i32 @pthread_cond_init(ptr noundef nonnull %23, ptr noundef null) #10
  %25 = getelementptr inbounds nuw [16 x i64], ptr @blas_threads, i64 0, i64 %.01517
  %26 = inttoptr i64 %.01517 to ptr
  %27 = tail call i32 @pthread_create(ptr noundef nonnull %25, ptr noundef null, ptr noundef nonnull @blas_thread_server, ptr noundef %26) #10
  %28 = add nuw nsw i64 %.01517, 1
  %29 = icmp slt i64 %28, %15
  br i1 %29, label %.lr.ph, label %._crit_edge, !llvm.loop !71

._crit_edge:                                      ; preds = %.lr.ph, %10
  store i32 %spec.store.select, ptr @blas_num_threads, align 4, !tbaa !3
  %30 = tail call i32 @pthread_mutex_unlock(ptr noundef nonnull @server_lock) #10
  br label %31

31:                                               ; preds = %._crit_edge, %6
  store i32 %spec.store.select, ptr @blas_cpu_number, align 4, !tbaa !3
  ret void
}